; Function Attrs: nounwind uwtable
define i32 @nghttp2_session_consume_stream(ptr noundef %0, i32 noundef %1, i64 noundef %2) local_unnamed_addr #1 {
  %4 = icmp eq i32 %1, 0
  br i1 %4, label %nghttp2_session_get_stream.exit.thread, label %5

5:                                                ; preds = %3
  %6 = getelementptr inbounds nuw i8, ptr %0, i64 2660
  %7 = load i32, ptr %6, align 4, !tbaa !74
  %8 = and i32 %7, 1
  %.not = icmp eq i32 %8, 0
  br i1 %.not, label %nghttp2_session_get_stream.exit.thread, label %9

9:                                                ; preds = %5
  %10 = tail call ptr @nghttp2_map_find(ptr noundef nonnull %0, i32 noundef %1) #16
  %11 = icmp eq ptr %10, null
  br i1 %11, label %nghttp2_session_get_stream.exit.thread, label %12

12:                                               ; preds = %9
  %13 = getelementptr inbounds nuw i8, ptr %10, i64 116
  %14 = load i8, ptr %13, align 4, !tbaa !38
  %15 = and i8 %14, 2
  %.not.i = icmp eq i8 %15, 0
  br i1 %.not.i, label %16, label %nghttp2_session_get_stream.exit.thread

16:                                               ; preds = %12
  %17 = load i32, ptr %10, align 8, !tbaa !42
  %18 = icmp eq i32 %17, 5
  br i1 %18, label %nghttp2_session_get_stream.exit.thread, label %nghttp2_session_get_stream.exit

nghttp2_session_get_stream.exit:                  ; preds = %16
  %19 = getelementptr inbounds nuw i8, ptr %10, i64 92
  %20 = getelementptr inbounds nuw i8, ptr %10, i64 88
  %21 = getelementptr inbounds nuw i8, ptr %10, i64 119
  %22 = load i8, ptr %21, align 1, !tbaa !120
  %23 = getelementptr inbounds nuw i8, ptr %10, i64 80
  %24 = load i32, ptr %23, align 8, !tbaa !140
  %25 = getelementptr inbounds nuw i8, ptr %10, i64 100
  %26 = load i32, ptr %25, align 4, !tbaa !169
  %27 = tail call fastcc i32 @session_update_consumed_size(ptr noundef nonnull %0, ptr noundef nonnull %19, ptr noundef nonnull %20, i8 noundef zeroext %22, i32 noundef %24, i64 noundef %2, i32 noundef %26)
  %28 = icmp sgt i32 %27, -901
  %. = select i1 %28, i32 0, i32 %27
  br label %nghttp2_session_get_stream.exit.thread

nghttp2_session_get_stream.exit.thread:           ; preds = %16, %9, %12, %nghttp2_session_get_stream.exit, %5, %3
  %.0 = phi i32 [ -501, %3 ], [ -519, %5 ], [ %., %nghttp2_session_get_stream.exit ], [ 0, %12 ], [ 0, %9 ], [ 0, %16 ]
  ret i32 %.0
}